target datalayout = "e-m:e-p270:32:32-p271:32:32-p272:64:64-i64:64-i128:128-f80:128-n8:16:32:64-S128"
target triple = "x86_64-pc-linux-gnu"

%struct.Vec_Int_t_ = type { i32, i32, ptr }
%struct.Psr_Ntk_t_ = type { i32, i8, ptr, %struct.Vec_Int_t_, %struct.Vec_Int_t_, %struct.Vec_Int_t_, %struct.Vec_Int_t_, %struct.Vec_Int_t_, %struct.Vec_Int_t_, %struct.Vec_Int_t_, %struct.Vec_Int_t_, %struct.Vec_Int_t_, %struct.Vec_Int_t_, %struct.Vec_Int_t_, %struct.Vec_Int_t_, %struct.Vec_Int_t_ }

; Function Attrs: inlinehint nounwind uwtable
define internal i32 @Vec_IntSize(ptr noundef %0) #3 {
  %2 = alloca ptr, align 8
  store ptr %0, ptr %2, align 8, !tbaa !12
  %3 = load ptr, ptr %2, align 8, !tbaa !12
  %4 = getelementptr inbounds nuw %struct.Vec_Int_t_, ptr %3, i32 0, i32 1
  %5 = load i32, ptr %4, align 4, !tbaa !19
  ret i32 %5
}

; Function Attrs: inlinehint nounwind uwtable
define internal i32 @Psr_NtkPoNum(ptr noundef %0) #3 {
  %2 = alloca ptr, align 8
  store ptr %0, ptr %2, align 8, !tbaa !3
  %3 = load ptr, ptr %2, align 8, !tbaa !3
  %4 = getelementptr inbounds nuw %struct.Psr_Ntk_t_, ptr %3, i32 0, i32 6
  %5 = call i32 @Vec_IntSize(ptr noundef %4)
  ret i32 %5
}

; Function Attrs: inlinehint nounwind uwtable
define internal void @Vec_IntWriteEntry(ptr noundef %0, i32 noundef %1, i32 noundef %2) #3 {
  %4 = alloca ptr, align 8
  %5 = alloca i32, align 4
  %6 = alloca i32, align 4
  store ptr %0, ptr %4, align 8, !tbaa !12
  store i32 %1, ptr %5, align 4, !tbaa !10
  store i32 %2, ptr %6, align 4, !tbaa !10
  %7 = load i32, ptr %6, align 4, !tbaa !10
  %8 = load ptr, ptr %4, align 8, !tbaa !12
  %9 = getelementptr inbounds nuw %struct.Vec_Int_t_, ptr %8, i32 0, i32 2
  %10 = load ptr, ptr %9, align 8, !tbaa !20
  %11 = load i32, ptr %5, align 4, !tbaa !10
  %12 = sext i32 %11 to i64
  %13 = getelementptr inbounds i32, ptr %10, i64 %12
  store i32 %7, ptr %13, align 4, !tbaa !10
  ret void
}

; Function Attrs: inlinehint nounwind uwtable
define internal i32 @Vec_IntEntry(ptr noundef %0, i32 noundef %1) #3 {
  %3 = alloca ptr, align 8
  %4 = alloca i32, align 4
  store ptr %0, ptr %3, align 8, !tbaa !12
  store i32 %1, ptr %4, align 4, !tbaa !10
  %5 = load ptr, ptr %3, align 8, !tbaa !12
  %6 = getelementptr inbounds nuw %struct.Vec_Int_t_, ptr %5, i32 0, i32 2
  %7 = load ptr, ptr %6, align 8, !tbaa !20
  %8 = load i32, ptr %4, align 4, !tbaa !10
  %9 = sext i32 %8 to i64
  %10 = getelementptr inbounds i32, ptr %7, i64 %9
  %11 = load i32, ptr %10, align 4, !tbaa !10
  ret i32 %11
}

; Function Attrs: inlinehint nounwind uwtable
define internal i32 @Psr_NtkPiNum(ptr noundef %0) #3 {
  %2 = alloca ptr, align 8
  store ptr %0, ptr %2, align 8, !tbaa !3
  %3 = load ptr, ptr %2, align 8, !tbaa !3
  %4 = getelementptr inbounds nuw %struct.Psr_Ntk_t_, ptr %3, i32 0, i32 5
  %5 = call i32 @Vec_IntSize(ptr noundef %4)
  ret i32 %5
}

; Function Attrs: nounwind uwtable
define void @Psr_ManRemapOne(ptr noundef %0, ptr noundef %1, ptr noundef %2) #0 {
  %4 = alloca ptr, align 8
  %5 = alloca ptr, align 8
  %6 = alloca ptr, align 8
  %7 = alloca i32, align 4
  %8 = alloca i32, align 4
  store ptr %0, ptr %4, align 8, !tbaa !12
  store ptr %1, ptr %5, align 8, !tbaa !3
  store ptr %2, ptr %6, align 8, !tbaa !12
  call void @llvm.lifetime.start.p0(i64 4, ptr %7) #10
  call void @llvm.lifetime.start.p0(i64 4, ptr %8) #10
  store i32 0, ptr %7, align 4, !tbaa !10
  br label %9

9:                                                ; preds = %27, %3
  %10 = load i32, ptr %7, align 4, !tbaa !10
  %11 = load ptr, ptr %5, align 8, !tbaa !3
  %12 = call i32 @Psr_NtkPiNum(ptr noundef %11)
  %13 = icmp slt i32 %10, %12
  br i1 %13, label %14, label %20

14:                                               ; preds = %9
  %15 = load ptr, ptr %5, align 8, !tbaa !3
  %16 = getelementptr inbounds nuw %struct.Psr_Ntk_t_, ptr %15, i32 0, i32 5
  %17 = load i32, ptr %7, align 4, !tbaa !10
  %18 = call i32 @Vec_IntEntry(ptr noundef %16, i32 noundef %17)
  store i32 %18, ptr %8, align 4, !tbaa !10
  %19 = icmp ne i32 %18, 0
  br label %20

20:                                               ; preds = %14, %9
  %21 = phi i1 [ false, %9 ], [ %19, %14 ]
  br i1 %21, label %22, label %30

22:                                               ; preds = %20
  %23 = load ptr, ptr %6, align 8, !tbaa !12
  %24 = load i32, ptr %8, align 4, !tbaa !10
  %25 = load i32, ptr %7, align 4, !tbaa !10
  %26 = add nsw i32 %25, 1
  call void @Vec_IntWriteEntry(ptr noundef %23, i32 noundef %24, i32 noundef %26)
  br label %27

27:                                               ; preds = %22
  %28 = load i32, ptr %7, align 4, !tbaa !10
  %29 = add nsw i32 %28, 1
  store i32 %29, ptr %7, align 4, !tbaa !10
  br label %9, !llvm.loop !25

30:                                               ; preds = %20
  store i32 0, ptr %7, align 4, !tbaa !10
  br label %31

31:                                               ; preds = %52, %30
  %32 = load i32, ptr %7, align 4, !tbaa !10
  %33 = load ptr, ptr %5, align 8, !tbaa !3
  %34 = call i32 @Psr_NtkPoNum(ptr noundef %33)
  %35 = icmp slt i32 %32, %34
  br i1 %35, label %36, label %42

36:                                               ; preds = %31
  %37 = load ptr, ptr %5, align 8, !tbaa !3
  %38 = getelementptr inbounds nuw %struct.Psr_Ntk_t_, ptr %37, i32 0, i32 6
  %39 = load i32, ptr %7, align 4, !tbaa !10
  %40 = call i32 @Vec_IntEntry(ptr noundef %38, i32 noundef %39)
  store i32 %40, ptr %8, align 4, !tbaa !10
  %41 = icmp ne i32 %40, 0
  br label %42

42:                                               ; preds = %36, %31
  %43 = phi i1 [ false, %31 ], [ %41, %36 ]
  br i1 %43, label %44, label %55

44:                                               ; preds = %42
  %45 = load ptr, ptr %6, align 8, !tbaa !12
  %46 = load i32, ptr %8, align 4, !tbaa !10
  %47 = load ptr, ptr %5, align 8, !tbaa !3
  %48 = call i32 @Psr_NtkPiNum(ptr noundef %47)
  %49 = load i32, ptr %7, align 4, !tbaa !10
  %50 = add nsw i32 %48, %49
  %51 = add nsw i32 %50, 1
  call void @Vec_IntWriteEntry(ptr noundef %45, i32 noundef %46, i32 noundef %51)
  br label %52

52:                                               ; preds = %44
  %53 = load i32, ptr %7, align 4, !tbaa !10
  %54 = add nsw i32 %53, 1
  store i32 %54, ptr %7, align 4, !tbaa !10
  br label %31, !llvm.loop !26

55:                                               ; preds = %42
  store i32 0, ptr %7, align 4, !tbaa !10
  br label %56

56:                                               ; preds = %74, %55
  %57 = load i32, ptr %7, align 4, !tbaa !10
  %58 = load ptr, ptr %4, align 8, !tbaa !12
  %59 = call i32 @Vec_IntSize(ptr noundef %58)
  %60 = icmp slt i32 %57, %59
  br i1 %60, label %61, label %65

61:                                               ; preds = %56
  %62 = load ptr, ptr %4, align 8, !tbaa !12
  %63 = load i32, ptr %7, align 4, !tbaa !10
  %64 = call i32 @Vec_IntEntry(ptr noundef %62, i32 noundef %63)
  store i32 %64, ptr %8, align 4, !tbaa !10
  br label %65

65:                                               ; preds = %61, %56
  %66 = phi i1 [ false, %56 ], [ true, %61 ]
  br i1 %66, label %67, label %77

67:                                               ; preds = %65
  %68 = load ptr, ptr %4, align 8, !tbaa !12
  %69 = load i32, ptr %7, align 4, !tbaa !10
  %70 = add nsw i32 %69, 1
  store i32 %70, ptr %7, align 4, !tbaa !10
  %71 = load ptr, ptr %6, align 8, !tbaa !12
  %72 = load i32, ptr %8, align 4, !tbaa !10
  %73 = call i32 @Vec_IntEntry(ptr noundef %71, i32 noundef %72)
  call void @Vec_IntWriteEntry(ptr noundef %68, i32 noundef %69, i32 noundef %73)
  br label %74

74:                                               ; preds = %67
  %75 = load i32, ptr %7, align 4, !tbaa !10
  %76 = add nsw i32 %75, 1
  store i32 %76, ptr %7, align 4, !tbaa !10
  br label %56, !llvm.loop !27

77:                                               ; preds = %65
  store i32 0, ptr %7, align 4, !tbaa !10
  br label %78

78:                                               ; preds = %94, %77
  %79 = load i32, ptr %7, align 4, !tbaa !10
  %80 = load ptr, ptr %5, align 8, !tbaa !3
  %81 = call i32 @Psr_NtkPiNum(ptr noundef %80)
  %82 = icmp slt i32 %79, %81
  br i1 %82, label %83, label %89

83:                                               ; preds = %78
  %84 = load ptr, ptr %5, align 8, !tbaa !3
  %85 = getelementptr inbounds nuw %struct.Psr_Ntk_t_, ptr %84, i32 0, i32 5
  %86 = load i32, ptr %7, align 4, !tbaa !10
  %87 = call i32 @Vec_IntEntry(ptr noundef %85, i32 noundef %86)
  store i32 %87, ptr %8, align 4, !tbaa !10
  %88 = icmp ne i32 %87, 0
  br label %89

89:                                               ; preds = %83, %78
  %90 = phi i1 [ false, %78 ], [ %88, %83 ]
  br i1 %90, label %91, label %97

91:                                               ; preds = %89
  %92 = load ptr, ptr %6, align 8, !tbaa !12
  %93 = load i32, ptr %8, align 4, !tbaa !10
  call void @Vec_IntWriteEntry(ptr noundef %92, i32 noundef %93, i32 noundef -1)
  br label %94

94:                                               ; preds = %91
  %95 = load i32, ptr %7, align 4, !tbaa !10
  %96 = add nsw i32 %95, 1
  store i32 %96, ptr %7, align 4, !tbaa !10
  br label %78, !llvm.loop !28

97:                                               ; preds = %89
  store i32 0, ptr %7, align 4, !tbaa !10
  br label %98

98:                                               ; preds = %114, %97
  %99 = load i32, ptr %7, align 4, !tbaa !10
  %100 = load ptr, ptr %5, align 8, !tbaa !3
  %101 = call i32 @Psr_NtkPoNum(ptr noundef %100)
  %102 = icmp slt i32 %99, %101
  br i1 %102, label %103, label %109

103:                                              ; preds = %98
  %104 = load ptr, ptr %5, align 8, !tbaa !3
  %105 = getelementptr inbounds nuw %struct.Psr_Ntk_t_, ptr %104, i32 0, i32 6
  %106 = load i32, ptr %7, align 4, !tbaa !10
  %107 = call i32 @Vec_IntEntry(ptr noundef %105, i32 noundef %106)
  store i32 %107, ptr %8, align 4, !tbaa !10
  %108 = icmp ne i32 %107, 0
  br label %109

109:                                              ; preds = %103, %98
  %110 = phi i1 [ false, %98 ], [ %108, %103 ]
  br i1 %110, label %111, label %117

111:                                              ; preds = %109
  %112 = load ptr, ptr %6, align 8, !tbaa !12
  %113 = load i32, ptr %8, align 4, !tbaa !10
  call void @Vec_IntWriteEntry(ptr noundef %112, i32 noundef %113, i32 noundef -1)
  br label %114

114:                                              ; preds = %111
  %115 = load i32, ptr %7, align 4, !tbaa !10
  %116 = add nsw i32 %115, 1
  store i32 %116, ptr %7, align 4, !tbaa !10
  br label %98, !llvm.loop !29

117:                                              ; preds = %109
  call void @llvm.lifetime.end.p0(i64 4, ptr %8) #10
  call void @llvm.lifetime.end.p0(i64 4, ptr %7) #10
  ret void
}