; Function Attrs: nofree norecurse nosync nounwind memory(readwrite, inaccessiblemem: none) uwtable
define void @Psr_ManRemapOne(ptr noundef readonly captures(none) %0, ptr noundef readonly captures(none) %1, ptr noundef readonly captures(none) %2) local_unnamed_addr #4 {
  %4 = getelementptr i8, ptr %1, i64 52
  %.val6071 = load i32, ptr %4, align 4, !tbaa !3
  %5 = icmp sgt i32 %.val6071, 0
  br i1 %5, label %.lr.ph, label %.critedge

.lr.ph:                                           ; preds = %3
  %6 = getelementptr i8, ptr %1, i64 56
  %.val54 = load ptr, ptr %6, align 8, !tbaa !10
  %7 = getelementptr i8, ptr %2, i64 8
  br label %8

8:                                                ; preds = %.lr.ph, %11
  %indvars.iv = phi i64 [ 0, %.lr.ph ], [ %indvars.iv.next, %11 ]
  %9 = getelementptr inbounds nuw i32, ptr %.val54, i64 %indvars.iv
  %10 = load i32, ptr %9, align 4, !tbaa !11
  %.not = icmp eq i32 %10, 0
  br i1 %.not, label %.critedge, label %11

11:                                               ; preds = %8
  %indvars.iv.next = add nuw nsw i64 %indvars.iv, 1
  %.val65 = load ptr, ptr %7, align 8, !tbaa !10
  %12 = sext i32 %10 to i64
  %13 = getelementptr inbounds i32, ptr %.val65, i64 %12
  %14 = trunc nuw nsw i64 %indvars.iv.next to i32
  store i32 %14, ptr %13, align 4, !tbaa !11
  %.val60 = load i32, ptr %4, align 4, !tbaa !3
  %15 = sext i32 %.val60 to i64
  %16 = icmp slt i64 %indvars.iv.next, %15
  br i1 %16, label %8, label %.critedge, !llvm.loop !19

.critedge:                                        ; preds = %8, %11, %3
  %17 = getelementptr i8, ptr %1, i64 68
  %.val6374 = load i32, ptr %17, align 4, !tbaa !3
  %18 = icmp sgt i32 %.val6374, 0
  br i1 %18, label %.lr.ph76, label %.critedge2

.lr.ph76:                                         ; preds = %.critedge
  %19 = getelementptr i8, ptr %1, i64 72
  %.val55 = load ptr, ptr %19, align 8, !tbaa !10
  %20 = getelementptr i8, ptr %2, i64 8
  br label %21

21:                                               ; preds = %.lr.ph76, %24
  %indvars.iv89 = phi i64 [ 0, %.lr.ph76 ], [ %indvars.iv.next90, %24 ]
  %22 = getelementptr inbounds nuw i32, ptr %.val55, i64 %indvars.iv89
  %23 = load i32, ptr %22, align 4, !tbaa !11
  %.not51 = icmp eq i32 %23, 0
  br i1 %.not51, label %.critedge2, label %24

24:                                               ; preds = %21
  %.val61 = load i32, ptr %4, align 4, !tbaa !3
  %indvars.iv.next90 = add nuw nsw i64 %indvars.iv89, 1
  %25 = trunc nuw nsw i64 %indvars.iv.next90 to i32
  %26 = add i32 %.val61, %25
  %.val66 = load ptr, ptr %20, align 8, !tbaa !10
  %27 = sext i32 %23 to i64
  %28 = getelementptr inbounds i32, ptr %.val66, i64 %27
  store i32 %26, ptr %28, align 4, !tbaa !11
  %.val63 = load i32, ptr %17, align 4, !tbaa !3
  %29 = sext i32 %.val63 to i64
  %30 = icmp slt i64 %indvars.iv.next90, %29
  br i1 %30, label %21, label %.critedge2, !llvm.loop !20

.critedge2:                                       ; preds = %21, %24, %.critedge
  %31 = getelementptr i8, ptr %0, i64 4
  %.val78 = load i32, ptr %31, align 4, !tbaa !3
  %32 = icmp sgt i32 %.val78, 0
  br i1 %32, label %.lr.ph80, label %.critedge4.preheader

.lr.ph80:                                         ; preds = %.critedge2
  %33 = getelementptr i8, ptr %0, i64 8
  %.val56 = load ptr, ptr %33, align 8, !tbaa !10
  %34 = getelementptr i8, ptr %2, i64 8
  %.val57 = load ptr, ptr %34, align 8, !tbaa !10
  br label %38

.critedge4.preheader:                             ; preds = %38, %.critedge2
  %.val6281 = load i32, ptr %4, align 4, !tbaa !3
  %35 = icmp sgt i32 %.val6281, 0
  br i1 %35, label %.lr.ph83, label %.critedge6

.lr.ph83:                                         ; preds = %.critedge4.preheader
  %36 = getelementptr i8, ptr %1, i64 56
  %.val58 = load ptr, ptr %36, align 8, !tbaa !10
  %37 = getelementptr i8, ptr %2, i64 8
  br label %46

38:                                               ; preds = %.lr.ph80, %38
  %indvars.iv92 = phi i64 [ 0, %.lr.ph80 ], [ %indvars.iv.next93, %38 ]
  %39 = getelementptr inbounds nuw i32, ptr %.val56, i64 %indvars.iv92
  %40 = load i32, ptr %39, align 4, !tbaa !11
  %41 = sext i32 %40 to i64
  %42 = getelementptr inbounds i32, ptr %.val57, i64 %41
  %43 = load i32, ptr %42, align 4, !tbaa !11
  store i32 %43, ptr %39, align 4, !tbaa !11
  %indvars.iv.next93 = add nuw nsw i64 %indvars.iv92, 2
  %.val = load i32, ptr %31, align 4, !tbaa !3
  %44 = sext i32 %.val to i64
  %45 = icmp slt i64 %indvars.iv.next93, %44
  br i1 %45, label %38, label %.critedge4.preheader, !llvm.loop !21

46:                                               ; preds = %.lr.ph83, %.critedge4
  %indvars.iv95 = phi i64 [ 0, %.lr.ph83 ], [ %indvars.iv.next96, %.critedge4 ]
  %47 = getelementptr inbounds nuw i32, ptr %.val58, i64 %indvars.iv95
  %48 = load i32, ptr %47, align 4, !tbaa !11
  %.not52 = icmp eq i32 %48, 0
  br i1 %.not52, label %.critedge6, label %.critedge4

.critedge4:                                       ; preds = %46
  %.val68 = load ptr, ptr %37, align 8, !tbaa !10
  %49 = sext i32 %48 to i64
  %50 = getelementptr inbounds i32, ptr %.val68, i64 %49
  store i32 -1, ptr %50, align 4, !tbaa !11
  %indvars.iv.next96 = add nuw nsw i64 %indvars.iv95, 1
  %.val62 = load i32, ptr %4, align 4, !tbaa !3
  %51 = sext i32 %.val62 to i64
  %52 = icmp slt i64 %indvars.iv.next96, %51
  br i1 %52, label %46, label %.critedge6, !llvm.loop !22

.critedge6:                                       ; preds = %46, %.critedge4, %.critedge4.preheader
  %.val6484 = load i32, ptr %17, align 4, !tbaa !3
  %53 = icmp sgt i32 %.val6484, 0
  br i1 %53, label %.lr.ph86, label %.critedge8

.lr.ph86:                                         ; preds = %.critedge6
  %54 = getelementptr i8, ptr %1, i64 72
  %.val59 = load ptr, ptr %54, align 8, !tbaa !10
  %55 = getelementptr i8, ptr %2, i64 8
  br label %56

56:                                               ; preds = %.lr.ph86, %59
  %indvars.iv98 = phi i64 [ 0, %.lr.ph86 ], [ %indvars.iv.next99, %59 ]
  %57 = getelementptr inbounds nuw i32, ptr %.val59, i64 %indvars.iv98
  %58 = load i32, ptr %57, align 4, !tbaa !11
  %.not53 = icmp eq i32 %58, 0
  br i1 %.not53, label %.critedge8, label %59

59:                                               ; preds = %56
  %.val69 = load ptr, ptr %55, align 8, !tbaa !10
  %60 = sext i32 %58 to i64
  %61 = getelementptr inbounds i32, ptr %.val69, i64 %60
  store i32 -1, ptr %61, align 4, !tbaa !11
  %indvars.iv.next99 = add nuw nsw i64 %indvars.iv98, 1
  %.val64 = load i32, ptr %17, align 4, !tbaa !3
  %62 = sext i32 %.val64 to i64
  %63 = icmp slt i64 %indvars.iv.next99, %62
  br i1 %63, label %56, label %.critedge8, !llvm.loop !23

.critedge8:                                       ; preds = %56, %59, %.critedge6
  ret void
}